; Function Attrs: mustprogress nounwind uwtable
define dso_local void @_ZN5clang19SarifDocumentWriter5resetEv(ptr noundef nonnull align 8 dereferenceable(4720) %0) local_unnamed_addr #0 align 2 {
  %2 = getelementptr inbounds nuw i8, ptr %0, i64 72
  %3 = load ptr, ptr %2, align 8
  %4 = tail call noundef i64 @_ZNK4llvm15SmallVectorBaseIjE4sizeEv(ptr noundef nonnull align 8 dereferenceable(16) %2) #17
  %.not4.i.i = icmp eq i64 %4, 0
  br i1 %.not4.i.i, label %_ZN4llvm15SmallVectorImplIN5clang9SarifRuleEE5clearEv.exit, label %.lr.ph.i.preheader.i

.lr.ph.i.preheader.i:                             ; preds = %1
  %5 = getelementptr inbounds %"class.clang::SarifRule", ptr %3, i64 %4
  br label %.lr.ph.i.i

.lr.ph.i.i:                                       ; preds = %.lr.ph.i.i, %.lr.ph.i.preheader.i
  %.05.i.i = phi ptr [ %6, %.lr.ph.i.i ], [ %5, %.lr.ph.i.preheader.i ]
  %6 = getelementptr inbounds i8, ptr %.05.i.i, i64 -144
  %7 = getelementptr inbounds i8, ptr %.05.i.i, i64 -48
  tail call void @_ZNSt7__cxx1112basic_stringIcSt11char_traitsIcESaIcEED1Ev(ptr noundef nonnull align 8 dereferenceable(32) %7) #17
  %8 = getelementptr inbounds i8, ptr %.05.i.i, i64 -80
  tail call void @_ZNSt7__cxx1112basic_stringIcSt11char_traitsIcESaIcEED1Ev(ptr noundef nonnull align 8 dereferenceable(32) %8) #17
  %9 = getelementptr inbounds i8, ptr %.05.i.i, i64 -112
  tail call void @_ZNSt7__cxx1112basic_stringIcSt11char_traitsIcESaIcEED1Ev(ptr noundef nonnull align 8 dereferenceable(32) %9) #17
  tail call void @_ZNSt7__cxx1112basic_stringIcSt11char_traitsIcESaIcEED1Ev(ptr noundef nonnull align 8 dereferenceable(140) %6) #17
  %.not.i.i = icmp eq ptr %3, %6
  br i1 %.not.i.i, label %_ZN4llvm15SmallVectorImplIN5clang9SarifRuleEE5clearEv.exit, label %.lr.ph.i.i, !llvm.loop !68

_ZN4llvm15SmallVectorImplIN5clang9SarifRuleEE5clearEv.exit: ; preds = %.lr.ph.i.i, %1
  %10 = getelementptr inbounds nuw i8, ptr %0, i64 80
  store i32 0, ptr %10, align 8
  %11 = getelementptr inbounds nuw i8, ptr %0, i64 4696
  tail call void @_ZN4llvm9StringMapIN5clang6detail13SarifArtifactENS_15MallocAllocatorEE5clearEv(ptr noundef nonnull align 8 dereferenceable(24) %11)
  ret void
}